target datalayout = "e-m:e-p270:32:32-p271:32:32-p272:64:64-i64:64-i128:128-f80:128-n8:16:32:64-S128"
target triple = "x86_64-pc-linux-gnu"

%struct.ForEachState = type { ptr, i32 }
%struct.List = type { i32, i32, i32, ptr, [0 x %union.ListCell] }
%union.ListCell = type { ptr }
%struct.TargetEntry = type { %struct.Expr, ptr, i16, ptr, i32, i32, i16, i8 }
%struct.Expr = type { i32 }

; Function Attrs: nounwind uwtable
define internal ptr @ExecTypeFromTLInternal(ptr noundef %0, i1 noundef zeroext %1) #0 {
  %3 = alloca ptr, align 8
  %4 = alloca i8, align 1
  %5 = alloca ptr, align 8
  %6 = alloca ptr, align 8
  %7 = alloca i32, align 4
  %8 = alloca i32, align 4
  %9 = alloca %struct.ForEachState, align 8
  %10 = alloca i32, align 4
  %11 = alloca ptr, align 8
  store ptr %0, ptr %3, align 8
  %12 = zext i1 %1 to i8
  store i8 %12, ptr %4, align 1
  call void @llvm.lifetime.start.p0(i64 8, ptr %5) #10
  call void @llvm.lifetime.start.p0(i64 8, ptr %6) #10
  call void @llvm.lifetime.start.p0(i64 4, ptr %7) #10
  call void @llvm.lifetime.start.p0(i64 4, ptr %8) #10
  store i32 1, ptr %8, align 4
  %13 = load i8, ptr %4, align 1, !range !4, !noundef !5
  %14 = trunc i8 %13 to i1
  br i1 %14, label %15, label %18

15:                                               ; preds = %2
  %16 = load ptr, ptr %3, align 8
  %17 = call i32 @ExecCleanTargetListLength(ptr noundef %16)
  store i32 %17, ptr %7, align 4
  br label %21

18:                                               ; preds = %2
  %19 = load ptr, ptr %3, align 8
  %20 = call i32 @ExecTargetListLength(ptr noundef %19)
  store i32 %20, ptr %7, align 4
  br label %21

21:                                               ; preds = %18, %15
  %22 = load i32, ptr %7, align 4
  %23 = call ptr @CreateTemplateTupleDesc(i32 noundef %22)
  store ptr %23, ptr %5, align 8
  call void @llvm.lifetime.start.p0(i64 16, ptr %9) #10
  %24 = getelementptr inbounds nuw %struct.ForEachState, ptr %9, i32 0, i32 0
  %25 = load ptr, ptr %3, align 8
  store ptr %25, ptr %24, align 8
  %26 = getelementptr inbounds nuw %struct.ForEachState, ptr %9, i32 0, i32 1
  store i32 0, ptr %26, align 8
  %27 = getelementptr i8, ptr %9, i64 12
  call void @llvm.memset.p0.i64(ptr align 4 %27, i8 0, i64 4, i1 false)
  br label %28

28:                                               ; preds = %92, %21
  %29 = getelementptr inbounds nuw %struct.ForEachState, ptr %9, i32 0, i32 0
  %30 = load ptr, ptr %29, align 8
  %31 = icmp ne ptr %30, null
  br i1 %31, label %32, label %49

32:                                               ; preds = %28
  %33 = getelementptr inbounds nuw %struct.ForEachState, ptr %9, i32 0, i32 1
  %34 = load i32, ptr %33, align 8
  %35 = getelementptr inbounds nuw %struct.ForEachState, ptr %9, i32 0, i32 0
  %36 = load ptr, ptr %35, align 8
  %37 = getelementptr inbounds nuw %struct.List, ptr %36, i32 0, i32 1
  %38 = load i32, ptr %37, align 4
  %39 = icmp slt i32 %34, %38
  br i1 %39, label %40, label %49

40:                                               ; preds = %32
  %41 = getelementptr inbounds nuw %struct.ForEachState, ptr %9, i32 0, i32 0
  %42 = load ptr, ptr %41, align 8
  %43 = getelementptr inbounds nuw %struct.List, ptr %42, i32 0, i32 3
  %44 = load ptr, ptr %43, align 8
  %45 = getelementptr inbounds nuw %struct.ForEachState, ptr %9, i32 0, i32 1
  %46 = load i32, ptr %45, align 8
  %47 = sext i32 %46 to i64
  %48 = getelementptr inbounds %union.ListCell, ptr %44, i64 %47
  store ptr %48, ptr %6, align 8
  br label %50

49:                                               ; preds = %32, %28
  store ptr null, ptr %6, align 8
  br label %50

50:                                               ; preds = %49, %40
  %51 = phi i32 [ 1, %40 ], [ 0, %49 ]
  %52 = icmp ne i32 %51, 0
  br i1 %52, label %54, label %53

53:                                               ; preds = %50
  store i32 2, ptr %10, align 4
  call void @llvm.lifetime.end.p0(i64 16, ptr %9) #10
  br label %96

54:                                               ; preds = %50
  call void @llvm.lifetime.start.p0(i64 8, ptr %11) #10
  %55 = load ptr, ptr %6, align 8
  %56 = load ptr, ptr %55, align 8
  store ptr %56, ptr %11, align 8
  %57 = load i8, ptr %4, align 1, !range !4, !noundef !5
  %58 = trunc i8 %57 to i1
  br i1 %58, label %59, label %65

59:                                               ; preds = %54
  %60 = load ptr, ptr %11, align 8
  %61 = getelementptr inbounds nuw %struct.TargetEntry, ptr %60, i32 0, i32 7
  %62 = load i8, ptr %61, align 2, !range !4, !noundef !5
  %63 = trunc i8 %62 to i1
  br i1 %63, label %64, label %65

64:                                               ; preds = %59
  store i32 4, ptr %10, align 4
  br label %89

65:                                               ; preds = %59, %54
  %66 = load ptr, ptr %5, align 8
  %67 = load i32, ptr %8, align 4
  %68 = trunc i32 %67 to i16
  %69 = load ptr, ptr %11, align 8
  %70 = getelementptr inbounds nuw %struct.TargetEntry, ptr %69, i32 0, i32 3
  %71 = load ptr, ptr %70, align 8
  %72 = load ptr, ptr %11, align 8
  %73 = getelementptr inbounds nuw %struct.TargetEntry, ptr %72, i32 0, i32 1
  %74 = load ptr, ptr %73, align 8
  %75 = call i32 @exprType(ptr noundef %74)
  %76 = load ptr, ptr %11, align 8
  %77 = getelementptr inbounds nuw %struct.TargetEntry, ptr %76, i32 0, i32 1
  %78 = load ptr, ptr %77, align 8
  %79 = call i32 @exprTypmod(ptr noundef %78)
  call void @TupleDescInitEntry(ptr noundef %66, i16 noundef signext %68, ptr noundef %71, i32 noundef %75, i32 noundef %79, i32 noundef 0)
  %80 = load ptr, ptr %5, align 8
  %81 = load i32, ptr %8, align 4
  %82 = trunc i32 %81 to i16
  %83 = load ptr, ptr %11, align 8
  %84 = getelementptr inbounds nuw %struct.TargetEntry, ptr %83, i32 0, i32 1
  %85 = load ptr, ptr %84, align 8
  %86 = call i32 @exprCollation(ptr noundef %85)
  call void @TupleDescInitEntryCollation(ptr noundef %80, i16 noundef signext %82, i32 noundef %86)
  %87 = load i32, ptr %8, align 4
  %88 = add i32 %87, 1
  store i32 %88, ptr %8, align 4
  store i32 0, ptr %10, align 4
  br label %89

89:                                               ; preds = %65, %64
  call void @llvm.lifetime.end.p0(i64 8, ptr %11) #10
  %90 = load i32, ptr %10, align 4
  switch i32 %90, label %98 [
    i32 0, label %91
    i32 4, label %92
  ]

91:                                               ; preds = %89
  br label %92

92:                                               ; preds = %91, %89
  %93 = getelementptr inbounds nuw %struct.ForEachState, ptr %9, i32 0, i32 1
  %94 = load i32, ptr %93, align 8
  %95 = add i32 %94, 1
  store i32 %95, ptr %93, align 8
  br label %28, !llvm.loop !13

96:                                               ; preds = %53
  %97 = load ptr, ptr %5, align 8
  store i32 1, ptr %10, align 4
  call void @llvm.lifetime.end.p0(i64 4, ptr %8) #10
  call void @llvm.lifetime.end.p0(i64 4, ptr %7) #10
  call void @llvm.lifetime.end.p0(i64 8, ptr %6) #10
  call void @llvm.lifetime.end.p0(i64 8, ptr %5) #10
  ret ptr %97

98:                                               ; preds = %89
  unreachable
}