; Function Attrs: nounwind uwtable
define internal fastcc ptr @ExecTypeFromTLInternal(ptr noundef %0, i1 noundef zeroext %1) unnamed_addr #1 {
  %3 = getelementptr inbounds nuw i8, ptr %0, i64 4
  %.not = icmp eq ptr %0, null
  br i1 %1, label %4, label %.thread

4:                                                ; preds = %2
  %5 = tail call i32 @ExecCleanTargetListLength(ptr noundef %0) #14
  %6 = tail call ptr @CreateTemplateTupleDesc(i32 noundef %5) #14
  br i1 %.not, label %._crit_edge, label %.lr.ph.split.us.split

.thread:                                          ; preds = %2
  %7 = tail call i32 @ExecTargetListLength(ptr noundef %0) #14
  %8 = tail call ptr @CreateTemplateTupleDesc(i32 noundef %7) #14
  br i1 %.not, label %._crit_edge, label %.lr.ph.split.split

.lr.ph.split.us.split:                            ; preds = %4
  %9 = getelementptr inbounds nuw i8, ptr %0, i64 16
  %10 = load i32, ptr %3, align 4
  %11 = icmp sgt i32 %10, 0
  br i1 %11, label %.lr.ph37, label %._crit_edge

.lr.ph37:                                         ; preds = %.lr.ph.split.us.split, %30
  %12 = phi i32 [ %31, %30 ], [ %10, %.lr.ph.split.us.split ]
  %indvars.iv39 = phi i64 [ %indvars.iv.next40, %30 ], [ 0, %.lr.ph.split.us.split ]
  %.02227.us36 = phi i16 [ %.1.us, %30 ], [ 1, %.lr.ph.split.us.split ]
  %13 = load ptr, ptr %9, align 8
  %14 = getelementptr inbounds nuw %union.ListCell, ptr %13, i64 %indvars.iv39
  %15 = load ptr, ptr %14, align 8
  %16 = getelementptr inbounds nuw i8, ptr %15, i64 42
  %17 = load i8, ptr %16, align 2, !range !5, !noundef !6
  %18 = trunc nuw i8 %17 to i1
  br i1 %18, label %30, label %19

19:                                               ; preds = %.lr.ph37
  %20 = getelementptr inbounds nuw i8, ptr %15, i64 24
  %21 = load ptr, ptr %20, align 8
  %22 = getelementptr inbounds nuw i8, ptr %15, i64 8
  %23 = load ptr, ptr %22, align 8
  %24 = tail call i32 @exprType(ptr noundef %23) #14
  %25 = load ptr, ptr %22, align 8
  %26 = tail call i32 @exprTypmod(ptr noundef %25) #14
  tail call void @TupleDescInitEntry(ptr noundef %6, i16 noundef signext %.02227.us36, ptr noundef %21, i32 noundef %24, i32 noundef %26, i32 noundef 0) #14
  %27 = load ptr, ptr %22, align 8
  %28 = tail call i32 @exprCollation(ptr noundef %27) #14
  tail call void @TupleDescInitEntryCollation(ptr noundef %6, i16 noundef signext %.02227.us36, i32 noundef %28) #14
  %29 = add i16 %.02227.us36, 1
  %.pre = load i32, ptr %3, align 4
  br label %30

30:                                               ; preds = %19, %.lr.ph37
  %31 = phi i32 [ %.pre, %19 ], [ %12, %.lr.ph37 ]
  %.1.us = phi i16 [ %29, %19 ], [ %.02227.us36, %.lr.ph37 ]
  %indvars.iv.next40 = add nuw nsw i64 %indvars.iv39, 1
  %32 = sext i32 %31 to i64
  %33 = icmp slt i64 %indvars.iv.next40, %32
  br i1 %33, label %.lr.ph37, label %._crit_edge

.lr.ph.split.split:                               ; preds = %.thread
  %34 = getelementptr inbounds nuw i8, ptr %0, i64 16
  %35 = load i32, ptr %3, align 4
  %36 = icmp sgt i32 %35, 0
  br i1 %36, label %.lr.ph34, label %._crit_edge

._crit_edge:                                      ; preds = %.lr.ph34, %30, %.thread, %.lr.ph.split.us.split, %.lr.ph.split.split, %4
  %37 = phi ptr [ %8, %.thread ], [ %6, %.lr.ph.split.us.split ], [ %8, %.lr.ph.split.split ], [ %6, %4 ], [ %6, %30 ], [ %8, %.lr.ph34 ]
  ret ptr %37

.lr.ph34:                                         ; preds = %.lr.ph.split.split, %.lr.ph34
  %indvars.iv = phi i64 [ %indvars.iv.next, %.lr.ph34 ], [ 0, %.lr.ph.split.split ]
  %.0222733 = phi i16 [ %50, %.lr.ph34 ], [ 1, %.lr.ph.split.split ]
  %38 = load ptr, ptr %34, align 8
  %39 = getelementptr inbounds nuw %union.ListCell, ptr %38, i64 %indvars.iv
  %40 = load ptr, ptr %39, align 8
  %41 = getelementptr inbounds nuw i8, ptr %40, i64 24
  %42 = load ptr, ptr %41, align 8
  %43 = getelementptr inbounds nuw i8, ptr %40, i64 8
  %44 = load ptr, ptr %43, align 8
  %45 = tail call i32 @exprType(ptr noundef %44) #14
  %46 = load ptr, ptr %43, align 8
  %47 = tail call i32 @exprTypmod(ptr noundef %46) #14
  tail call void @TupleDescInitEntry(ptr noundef %8, i16 noundef signext %.0222733, ptr noundef %42, i32 noundef %45, i32 noundef %47, i32 noundef 0) #14
  %48 = load ptr, ptr %43, align 8
  %49 = tail call i32 @exprCollation(ptr noundef %48) #14
  tail call void @TupleDescInitEntryCollation(ptr noundef %8, i16 noundef signext %.0222733, i32 noundef %49) #14
  %50 = add i16 %.0222733, 1
  %indvars.iv.next = add nuw nsw i64 %indvars.iv, 1
  %51 = load i32, ptr %3, align 4
  %52 = sext i32 %51 to i64
  %53 = icmp slt i64 %indvars.iv.next, %52
  br i1 %53, label %.lr.ph34, label %._crit_edge
}